#include <math.h>
#include <stdio.h>
#include <stdlib.h>
#include <string.h>

int main()
{
   int sum=0;
   int n,i;
   scanf("%d",&n);
   for(i=1;i<=n;i++)   
   { 
       if(i%7==0) continue;
       else if((i-10*(int)(i/10))==7)  continue;
       else if((int)(i/10)==7) continue;
       sum=sum+i*i;
    }
    printf("%d",sum);
    return 0;
}


